(dp0
VServer
p1
Vcmsweb.cern.ch
p2
sVPort
p3
V
p4
sVRequestName
p5
V240918_170014:amkaur_crab_limits_negRL_fixed_3M_exp_singleBin_combB_10_20240918_125941
p6
sVvoRole
p7
VNULL
p8
sVvoGroup
p9
g4
sVinstance
p10
Vprod
p11
sVOriginalConfig
p12
ccopy_reg
_reconstructor
p13
(cWMCore.Configuration
Configuration
p14
c__builtin__
object
p15
Ntp16
Rp17
(dp18
V_internal_sections
p19
(lp20
VGeneral
p21
aVJobType
p22
aVData
p23
aVSite
p24
aVUser
p25
asg21
g13
(cWMCore.Configuration
ConfigSection
p26
g15
Ntp27
Rp28
(dp29
V_internal_documentation
p30
g4
sV_internal_name
p31
g21
sV_internal_settings
p32
c__builtin__
set
p33
((lp34
VtransferOutputs
p35
aVrequestName
p36
aVworkArea
p37
atp38
Rp39
sV_internal_docstrings
p40
(dp41
sV_internal_children
p42
g33
((lp43
tp44
Rp45
sV_internal_parent_ref
p46
NsV_internal_skipChecks
p47
I00
sg36
Vlimits_negRL_fixed_3M_exp_singleBin_combB_10_20240918_125941
p48
sg37
Vcrab_projects
p49
sg35
I01
sbsg22
g13
(g26
g15
Ntp50
Rp51
(dp52
g30
g4
sg31
g22
sg32
g33
((lp53
VpsetName
p54
aVinputFiles
p55
aVallowUndistributedCMSSW
p56
aVscriptArgs
p57
aVpluginName
p58
aVoutputFiles
p59
aVscriptExe
p60
aVmaxMemoryMB
p61
atp62
Rp63
sg40
(dp64
sg42
g33
((lp65
tp66
Rp67
sg46
Nsg47
I00
sg58
VPrivateMC
p68
sg54
VdummyPSet.py
p69
sg60
VrunLimits
p70
sg57
(lp71
Vdummy=dummy.py
p72
aVtarFile=gridPack.tar
p73
aVoutputTag=negRL_fixed_3M_exp_singleBin_combB
p74
aVmass=10
p75
aVnIter=3000000
p76
aVnToys=10
p77
aVexpected=1
p78
aVconfig=mumu_2LB
p79
aVinject=0
p80
asg55
(lp81
VgridPack.tar
p82
aV/depot/cms/private/users/kaur214/analysis_facility/limits/CMSSW_14_1_0_pre4/bin/el8_amd64_gcc12/combine
p83
aVFrameworkJobReport.xml
p84
asg59
(lp85
VexpectedLimit_mumu_2LB_negRL_fixed_3M_exp_singleBin_combB_10.root
p86
asg56
I01
sg61
I5000
sbsg23
g13
(g26
g15
Ntp87
Rp88
(dp89
g30
g4
sg31
g23
sg32
g33
((lp90
VunitsPerJob
p91
aVoutputDatasetTag
p92
aVoutLFNDirBase
p93
aVtotalUnits
p94
aVoutputPrimaryDataset
p95
aVsplitting
p96
atp97
Rp98
sg40
(dp99
sg42
g33
((lp100
tp101
Rp102
sg46
Nsg47
I00
sg96
VEventBased
p103
sg91
I1
sg94
I500
sg95
VnegRL_fixed_3M_exp_singleBin_combB
p104
sg92
Vtest
p105
sg93
V/store/user/amkaur/limits/mumu_2LB
p106
sbsg24
g13
(g26
g15
Ntp107
Rp108
(dp109
g30
g4
sg31
g24
sg32
g33
((lp110
VstorageSite
p111
atp112
Rp113
sg40
(dp114
sg42
g33
((lp115
tp116
Rp117
sg46
Nsg47
I00
sg111
VT2_US_Purdue
p118
sbsg25
g13
(g26
g15
Ntp119
Rp120
(dp121
g30
g4
sg31
g25
sg32
g33
((lp122
tp123
Rp124
sg40
(dp125
sg42
g33
((lp126
tp127
Rp128
sg46
Nsg47
I00
sbsbs.