ccopy_reg
_reconstructor
p0
(cFWCore.ParameterSet.Config
Process
p1
c__builtin__
object
p2
Ntp3
Rp4
(dp5
V_Process__name
p6
VDummy
p7
sV_Process__filters
p8
(dp9
sV_Process__producers
p10
(dp11
sV_Process__switchproducers
p12
(dp13
sV_Process__source
p14
g0
(cFWCore.ParameterSet.Modules
Source
p15
g2
Ntp16
Rp17
(dp18
V_TypedParameterizable__type
p19
VEmptySource
p20
sV_Parameterizable__parameterNames
p21
(lp22
sV_isFrozen
p23
I00
sV_Parameterizable__validator
p24
NsV_isModified
p25
I00
sV_filename
p26
V/cvmfs/cms.cern.ch/el8_amd64_gcc12/cms/cmssw/CMSSW_14_1_0_pre4/src/FWCore/ParameterSet/python/Modules.py
p27
sV_lineNumber
p28
I195
sbsV_Process__looper
p29
NsV_Process__subProcesses
p30
(lp31
sV_Process__schedule
p32
NsV_Process__analyzers
p33
(dp34
sV_Process__outputmodules
p35
(dp36
sV_Process__paths
p37
g0
(cFWCore.ParameterSet.DictTypes
SortedKeysDict
p38
c__builtin__
dict
p39
(dp40
tp41
Rp42
(dp43
Vlist
p44
(lp45
sbsV_Process__endpaths
p46
g0
(g38
g39
(dp47
tp48
Rp49
(dp50
g44
(lp51
sbsV_Process__finalpaths
p52
g0
(g38
g39
(dp53
tp54
Rp55
(dp56
g44
(lp57
sbsV_Process__sequences
p58
(dp59
sV_Process__tasks
p60
(dp61
sV_Process__conditionaltasks
p62
(dp63
sV_Process__services
p64
(dp65
VMessageLogger
p66
g0
(cFWCore.ParameterSet.Modules
Service
p67
g2
Ntp68
Rp69
(dp70
g19
g66
sg21
(lp71
VsuppressWarning
p72
aVsuppressFwkInfo
p73
aVsuppressInfo
p74
aVsuppressDebug
p75
aVdebugModules
p76
aVcout
p77
aVdefault
p78
aVcerr
p79
aVfiles
p80
asg23
I00
sg24
g0
(cFWCore.ParameterSet.Types
_OptionalParameter
p81
g2
Ntp82
Rp83
(dp84
g23
I00
sV_ParameterTypeBase__isTracked
p85
I00
sg25
I00
sV_ProxyParameter__type
p86
g0
(cFWCore.ParameterSet.Types
_PSetTemplate
p87
g2
Ntp88
Rp89
(dp90
V_pset
p91
g0
(cFWCore.ParameterSet.Types
PSet
p92
g2
Ntp93
Rp94
(dp95
g23
I00
sg85
I01
sg25
I00
sg21
(lp96
VreportEvery
p97
aVlimit
p98
aVtimespan
p99
asg24
Nsg97
g0
(cFWCore.ParameterSet.Types
int32
p100
g2
Ntp101
Rp102
(dp103
g23
I00
sg85
I00
sg25
I00
sV_value
p104
I1
sbsg98
g0
(g81
g2
Ntp105
Rp106
(dp107
g23
I00
sg85
I00
sg25
I00
sg86
g100
sV_ProxyParameter__value
p108
Nsbsg99
g0
(g81
g2
Ntp109
Rp110
(dp111
g23
I00
sg85
I00
sg25
I00
sg86
g100
sg108
Nsbsbsbsg108
Nsbsg72
g0
(cFWCore.ParameterSet.Types
vstring
p112
c__builtin__
list
p113
(lp114
tp115
Rp116
(dp117
g23
I00
sg85
I00
sg25
I00
sV_nPerLine
p118
I1
sbsg25
I00
sg73
g0
(g112
g113
(lp119
tp120
Rp121
(dp122
g23
I00
sg85
I00
sg25
I00
sg118
I1
sbsg74
g0
(g112
g113
(lp123
tp124
Rp125
(dp126
g23
I00
sg85
I00
sg25
I00
sg118
I1
sbsg75
g0
(g112
g113
(lp127
tp128
Rp129
(dp130
g23
I00
sg85
I00
sg25
I00
sg118
I1
sbsg76
g0
(g112
g113
(lp131
tp132
Rp133
(dp134
g23
I00
sg85
I00
sg25
I00
sg118
I1
sbsg77
g0
(g92
g2
Ntp135
Rp136
(dp137
g23
I00
sg85
I00
sg25
I00
sg21
(lp138
VnoLineBreaks
p139
aVnoTimeStamps
p140
aVlineLength
p141
aVthreshold
p142
aVstatisticsThreshold
p143
aVenableStatistics
p144
aVresetStatistics
p145
aVenable
p146
asg24
g83
sg139
g0
(g81
g2
Ntp147
Rp148
(dp149
g23
I00
sg85
I00
sg25
I00
sg86
cFWCore.ParameterSet.Types
bool
p150
sg108
Nsbsg140
g0
(g81
g2
Ntp151
Rp152
(dp153
g23
I00
sg85
I00
sg25
I00
sg86
g150
sg108
Nsbsg141
g0
(g81
g2
Ntp154
Rp155
(dp156
g23
I00
sg85
I00
sg25
I00
sg86
g100
sg108
Nsbsg142
g0
(g81
g2
Ntp157
Rp158
(dp159
g23
I00
sg85
I00
sg25
I00
sg86
cFWCore.ParameterSet.Types
string
p160
sg108
Nsbsg143
g0
(g81
g2
Ntp161
Rp162
(dp163
g23
I00
sg85
I00
sg25
I00
sg86
g160
sg108
Nsbsg144
g0
(g150
g2
Ntp164
Rp165
(dp166
g23
I00
sg85
I00
sg25
I00
sg104
I00
sbsg145
g0
(g150
g2
Ntp167
Rp168
(dp169
g23
I00
sg85
I00
sg25
I00
sg104
I00
sbsg146
g0
(g150
g2
Ntp170
Rp171
(dp172
g23
I00
sg85
I00
sg25
I00
sg104
I00
sbsbsg78
g0
(g92
g2
Ntp173
Rp174
(dp175
g23
I00
sg85
I00
sg25
I00
sg21
(lp176
g97
ag98
ag99
ag139
ag140
ag141
ag142
ag143
asg24
g83
sg97
g0
(g100
g2
Ntp177
Rp178
(dp179
g23
I00
sg85
I00
sg25
I00
sg104
I1
sbsg98
g0
(g81
g2
Ntp180
Rp181
(dp182
g23
I00
sg85
I00
sg25
I00
sg86
g100
sg108
Nsbsg99
g0
(g81
g2
Ntp183
Rp184
(dp185
g23
I00
sg85
I00
sg25
I00
sg86
g100
sg108
Nsbsg139
g0
(g150
g2
Ntp186
Rp187
(dp188
g23
I00
sg85
I00
sg25
I00
sg104
I00
sbsg140
g0
(g150
g2
Ntp189
Rp190
(dp191
g23
I00
sg85
I00
sg25
I00
sg104
I00
sbsg141
g0
(g100
g2
Ntp192
Rp193
(dp194
g23
I00
sg85
I00
sg25
I00
sg104
I80
sbsg142
g0
(g160
g2
Ntp195
Rp196
(dp197
g23
I00
sg85
I00
sg25
I00
sg104
VINFO
p198
sbsg143
g0
(g160
g2
Ntp199
Rp200
(dp201
g23
I00
sg85
I00
sg25
I00
sg104
g198
sbsbsg79
g0
(g92
g2
Ntp202
Rp203
(dp204
g23
I00
sg85
I00
sg25
I00
sg21
(lp205
g139
ag140
ag141
ag142
ag143
ag146
ag144
ag145
ag198
aVFwkReport
p206
ag78
aVRoot_NoDictionary
p207
aVFwkSummary
p208
asg24
g83
sg139
g0
(g81
g2
Ntp209
Rp210
(dp211
g23
I00
sg85
I00
sg25
I00
sg86
g150
sg108
Nsbsg140
g0
(g150
g2
Ntp212
Rp213
(dp214
g23
I00
sg85
I00
sg25
I00
sg104
I00
sbsg141
g0
(g81
g2
Ntp215
Rp216
(dp217
g23
I00
sg85
I00
sg25
I00
sg86
g100
sg108
Nsbsg142
g0
(g160
g2
Ntp218
Rp219
(dp220
g23
I00
sg85
I00
sg25
I00
sg104
g198
sbsg143
g0
(g160
g2
Ntp221
Rp222
(dp223
g23
I00
sg85
I00
sg25
I00
sg104
VWARNING
p224
sbsg146
g0
(g150
g2
Ntp225
Rp226
(dp227
g23
I00
sg85
I00
sg25
I00
sg104
I01
sbsg144
g0
(g150
g2
Ntp228
Rp229
(dp230
g23
I00
sg85
I00
sg25
I00
sg104
I00
sbsg145
g0
(g150
g2
Ntp231
Rp232
(dp233
g23
I00
sg85
I00
sg25
I00
sg104
I00
sbsg198
g0
(g92
g2
Ntp234
Rp235
(dp236
g23
I00
sg85
I00
sg25
I00
sg21
(lp237
g98
asg24
Nsg98
g0
(g100
g2
Ntp238
Rp239
(dp240
g23
I00
sg85
I00
sg25
I00
sg104
I0
sbsbsg206
g0
(g92
g2
Ntp241
Rp242
(dp243
g23
I00
sg85
I00
sg25
I00
sg21
(lp244
g97
ag98
asg24
Nsg97
g0
(g100
g2
Ntp245
Rp246
(dp247
g23
I00
sg85
I00
sg25
I00
sg104
I1
sbsg98
g0
(g100
g2
Ntp248
Rp249
(dp250
g23
I00
sg85
I00
sg25
I00
sg104
I10000000
sbsbsg78
g0
(g92
g2
Ntp251
Rp252
(dp253
g23
I00
sg85
I00
sg25
I00
sg21
(lp254
g98
asg24
Nsg98
g0
(g100
g2
Ntp255
Rp256
(dp257
g23
I00
sg85
I00
sg25
I00
sg104
I10000000
sbsbsg207
g0
(g92
g2
Ntp258
Rp259
(dp260
g23
I00
sg85
I00
sg25
I00
sg21
(lp261
g98
asg24
Nsg98
g0
(g100
g2
Ntp262
Rp263
(dp264
g23
I00
sg85
I00
sg25
I00
sg104
I0
sbsbsg208
g0
(g92
g2
Ntp265
Rp266
(dp267
g23
I00
sg85
I00
sg25
I00
sg21
(lp268
g97
ag98
asg24
Nsg97
g0
(g100
g2
Ntp269
Rp270
(dp271
g23
I00
sg85
I00
sg25
I00
sg104
I1
sbsg98
g0
(g100
g2
Ntp272
Rp273
(dp274
g23
I00
sg85
I00
sg25
I00
sg104
I10000000
sbsbsbsg80
g0
(g92
g2
Ntp275
Rp276
(dp277
g23
I00
sg85
I00
sg25
I00
sg21
(lp278
sg24
g0
(g81
g2
Ntp279
Rp280
(dp281
g23
I00
sg85
I00
sg25
I00
sg86
g0
(g87
g2
Ntp282
Rp283
(dp284
g91
g0
(g92
g2
Ntp285
Rp286
(dp287
g23
I00
sg85
I01
sg25
I00
sg21
(lp288
g139
ag140
ag141
ag142
ag143
ag144
ag145
aVfilename
p289
aVextension
p290
aVoutput
p291
asg24
g83
sg139
g0
(g81
g2
Ntp292
Rp293
(dp294
g23
I00
sg85
I00
sg25
I00
sg86
g150
sg108
Nsbsg140
g0
(g81
g2
Ntp295
Rp296
(dp297
g23
I00
sg85
I00
sg25
I00
sg86
g150
sg108
Nsbsg141
g0
(g81
g2
Ntp298
Rp299
(dp300
g23
I00
sg85
I00
sg25
I00
sg86
g100
sg108
Nsbsg142
g0
(g81
g2
Ntp301
Rp302
(dp303
g23
I00
sg85
I00
sg25
I00
sg86
g160
sg108
Nsbsg143
g0
(g81
g2
Ntp304
Rp305
(dp306
g23
I00
sg85
I00
sg25
I00
sg86
g160
sg108
Nsbsg144
g0
(g150
g2
Ntp307
Rp308
(dp309
g23
I00
sg85
I00
sg25
I00
sg104
I00
sbsg145
g0
(g150
g2
Ntp310
Rp311
(dp312
g23
I00
sg85
I00
sg25
I00
sg104
I00
sbsg289
g0
(g81
g2
Ntp313
Rp314
(dp315
g23
I00
sg85
I00
sg25
I00
sg86
g160
sg108
Nsbsg290
g0
(g81
g2
Ntp316
Rp317
(dp318
g23
I00
sg85
I00
sg25
I00
sg86
g160
sg108
Nsbsg291
g0
(g81
g2
Ntp319
Rp320
(dp321
g23
I00
sg85
I00
sg25
I00
sg86
g160
sg108
Nsbsbsbsg108
Nsbsbsg26
g27
sg28
I13
sV_inProcess
p322
I01
sbssV_Process__essources
p323
(dp324
sV_Process__esproducers
p325
(dp326
sV_Process__esprefers
p327
(dp328
sV_Process__aliases
p329
(dp330
sV_Process__psets
p331
(dp332
Voptions
p333
g0
(g92
g2
Ntp334
Rp335
(dp336
g23
I00
sg85
I00
sg25
I00
sg21
(lp337
VnumberOfThreads
p338
aVnumberOfStreams
p339
aVnumberOfConcurrentRuns
p340
aVnumberOfConcurrentLuminosityBlocks
p341
aVeventSetup
p342
aVaccelerators
p343
aVwantSummary
p344
aVfileMode
p345
aVforceEventSetupCacheClearOnNewRun
p346
aVthrowIfIllegalParameter
p347
aVprintDependencies
p348
aVdeleteNonConsumedUnscheduledModules
p349
aVsizeOfStackForThreadsInKB
p350
aVRethrow
p351
aVTryToContinue
p352
aVIgnoreCompletely
p353
aVmodulesToCallForTryToContinue
p354
aVcanDeleteEarly
p355
aVholdsReferencesToDeleteEarly
p356
aVmodulesToIgnoreForDeleteEarly
p357
aVdumpOptions
p358
aVallowUnscheduled
p359
aVemptyRunLumiMode
p360
aVmakeTriggerResults
p361
asg24
Nsg338
g0
(cFWCore.ParameterSet.Types
uint32
p362
g2
Ntp363
Rp364
(dp365
g23
I00
sg85
I00
sg25
I00
sg104
I1
sbsg339
g0
(g362
g2
Ntp366
Rp367
(dp368
g23
I00
sg85
I00
sg25
I00
sg104
I0
sbsg340
g0
(g362
g2
Ntp369
Rp370
(dp371
g23
I00
sg85
I00
sg25
I00
sg104
I1
sbsg341
g0
(g362
g2
Ntp372
Rp373
(dp374
g23
I00
sg85
I00
sg25
I00
sg104
I0
sbsg342
g0
(g92
g2
Ntp375
Rp376
(dp377
g23
I00
sg85
I00
sg25
I00
sg21
(lp378
VnumberOfConcurrentIOVs
p379
aVforceNumberOfConcurrentIOVs
p380
asg24
Nsg379
g0
(g362
g2
Ntp381
Rp382
(dp383
g23
I00
sg85
I00
sg25
I00
sg104
I0
sbsg380
g0
(g92
g2
Ntp384
Rp385
(dp386
g23
I00
sg85
I00
sg25
I00
sg21
(lp387
sg24
g0
(cFWCore.ParameterSet.Types
_RequiredParameter
p388
g2
Ntp389
Rp390
(dp391
g23
I00
sg85
I00
sg25
I00
sg86
g362
sg108
Nsbsbsbsg343
g0
(g112
g113
(lp392
V*
p393
atp394
Rp395
(dp396
g23
I00
sg85
I00
sg25
I00
sg118
I1
sbsg344
g0
(g150
g2
Ntp397
Rp398
(dp399
g23
I00
sg85
I00
sg25
I00
sg104
I00
sbsg345
g0
(g160
g2
Ntp400
Rp401
(dp402
g23
I00
sg85
I00
sg25
I00
sg104
VFULLMERGE
p403
sbsg346
g0
(g150
g2
Ntp404
Rp405
(dp406
g23
I00
sg85
I00
sg25
I00
sg104
I00
sbsg347
g0
(g150
g2
Ntp407
Rp408
(dp409
g23
I00
sg85
I00
sg25
I00
sg104
I01
sbsg348
g0
(g150
g2
Ntp410
Rp411
(dp412
g23
I00
sg85
I00
sg25
I00
sg104
I00
sbsg349
g0
(g150
g2
Ntp413
Rp414
(dp415
g23
I00
sg85
I00
sg25
I00
sg104
I01
sbsg350
g0
(g81
g2
Ntp416
Rp417
(dp418
g23
I00
sg85
I00
sg25
I00
sg86
g362
sg108
Nsbsg351
g0
(g112
g113
(lp419
tp420
Rp421
(dp422
g23
I00
sg85
I00
sg25
I00
sg118
I1
sbsg352
g0
(g112
g113
(lp423
tp424
Rp425
(dp426
g23
I00
sg85
I00
sg25
I00
sg118
I1
sbsg353
g0
(g112
g113
(lp427
tp428
Rp429
(dp430
g23
I00
sg85
I00
sg25
I00
sg118
I1
sbsg354
g0
(g112
g113
(lp431
tp432
Rp433
(dp434
g23
I00
sg85
I00
sg25
I00
sg118
I1
sbsg355
g0
(g112
g113
(lp435
tp436
Rp437
(dp438
g23
I00
sg85
I00
sg25
I00
sg118
I1
sbsg356
g0
(cFWCore.ParameterSet.Types
VPSet
p439
g113
(lp440
tp441
Rp442
(dp443
g23
I00
sg85
I00
sg25
I00
sg118
I1
sbsg357
g0
(g112
g113
(lp444
tp445
Rp446
(dp447
g23
I00
sg85
I00
sg25
I00
sg118
I1
sbsg358
g0
(g150
g2
Ntp448
Rp449
(dp450
g23
I00
sg85
I00
sg25
I00
sg104
I00
sbsg359
g0
(cFWCore.ParameterSet.Types
_ObsoleteParameter
p451
g2
Ntp452
Rp453
(dp454
g23
I00
sg85
I00
sg25
I00
sg86
g150
sg108
Nsbsg360
g0
(g451
g2
Ntp455
Rp456
(dp457
g23
I00
sg85
I00
sg25
I00
sg86
g160
sg108
Nsbsg361
g0
(g451
g2
Ntp458
Rp459
(dp460
g23
I00
sg85
I00
sg25
I00
sg86
g150
sg108
NsbsV_Labelable__label
p461
g333
sbsVmaxEvents
p462
g0
(g92
g2
Ntp463
Rp464
(dp465
g23
I00
sg85
I00
sg25
I00
sg21
(lp466
Vinput
p467
ag291
asg24
Nsg467
g0
(g81
g2
Ntp468
Rp469
(dp470
g23
I00
sg85
I00
sg25
I00
sg86
g100
sg108
Nsbsg291
g0
(g81
g2
Ntp471
Rp472
(dp473
g23
I00
sg85
I00
sg25
I00
sg86
g0
(cFWCore.ParameterSet.Types
_AllowedParameterTypes
p474
g2
Ntp475
Rp476
(dp477
V_AllowedParameterTypes__types
p478
(g100
g92
tp479
sV_default
p480
NsV__name__
p481
Vallowed(cms.int32,cms.PSet)
p482
sbsg108
Nsbsg461
g462
sbsVmaxLuminosityBlocks
p483
g0
(g92
g2
Ntp484
Rp485
(dp486
g23
I00
sg85
I00
sg25
I00
sg21
(lp487
g467
asg24
Nsg467
g0
(g100
g2
Ntp488
Rp489
(dp490
g23
I00
sg85
I00
sg25
I00
sg104
I-1
sbsg461
g483
sbssV_Process__vpsets
p491
(dp492
sV_cloneToObjectDict
p493
(dp494
L23428053987776L
g335
sL23428308887632L
g464
sL23428308888064L
g485
ssV_Process__InExtendCall
p495
I00
sV_Process__partialschedules
p496
(dp497
sV_Process__isStrict
p498
I00
sV_Process__modifiers
p499
(tsV_Process__accelerators
p500
(dp501
sg333
g335
sg462
g464
sg483
g485
sg66
g69
sVsource
p502
g17
sg20
g17
sb.