(dp0
VServer
p1
Vcmsweb.cern.ch
p2
sVPort
p3
V
p4
sVRequestName
p5
V240921_165435:amkaur_crab_limits_m1000_negRL_3M_exp_singleBin_combB_14_20240921_125354
p6
sVvoRole
p7
VNULL
p8
sVvoGroup
p9
g4
sVinstance
p10
Vprod
p11
sVOriginalConfig
p12
ccopy_reg
_reconstructor
p13
(cWMCore.Configuration
Configuration
p14
c__builtin__
object
p15
Ntp16
Rp17
(dp18
V_internal_sections
p19
(lp20
VGeneral
p21
aVJobType
p22
aVData
p23
aVSite
p24
aVUser
p25
asg21
g13
(cWMCore.Configuration
ConfigSection
p26
g15
Ntp27
Rp28
(dp29
V_internal_documentation
p30
g4
sV_internal_name
p31
g21
sV_internal_settings
p32
c__builtin__
set
p33
((lp34
VworkArea
p35
aVtransferOutputs
p36
aVrequestName
p37
atp38
Rp39
sV_internal_docstrings
p40
(dp41
sV_internal_children
p42
g33
((lp43
tp44
Rp45
sV_internal_parent_ref
p46
NsV_internal_skipChecks
p47
I00
sg37
Vlimits_m1000_negRL_3M_exp_singleBin_combB_14_20240921_125354
p48
sg35
Vcrab_projects
p49
sg36
I01
sbsg22
g13
(g26
g15
Ntp50
Rp51
(dp52
g30
g4
sg31
g22
sg32
g33
((lp53
VpsetName
p54
aVallowUndistributedCMSSW
p55
aVoutputFiles
p56
aVinputFiles
p57
aVscriptExe
p58
aVpluginName
p59
aVmaxMemoryMB
p60
aVscriptArgs
p61
atp62
Rp63
sg40
(dp64
sg42
g33
((lp65
tp66
Rp67
sg46
Nsg47
I00
sg59
VPrivateMC
p68
sg54
VdummyPSet.py
p69
sg58
VrunLimits
p70
sg61
(lp71
Vdummy=dummy.py
p72
aVtarFile=gridPack.tar
p73
aVoutputTag=m1000_negRL_3M_exp_singleBin_combB
p74
aVmass=14
p75
aVnIter=3000000
p76
aVnToys=10
p77
aVexpected=1
p78
aVconfig=mumu_2LB
p79
aVinject=0
p80
asg57
(lp81
VgridPack.tar
p82
aV/depot/cms/private/users/kaur214/analysis_facility/limits/CMSSW_14_1_0_pre4/bin/el8_amd64_gcc12/combine
p83
aVFrameworkJobReport.xml
p84
asg56
(lp85
VexpectedLimit_mumu_2LB_m1000_negRL_3M_exp_singleBin_combB_14.root
p86
asg55
I01
sg60
I5000
sbsg23
g13
(g26
g15
Ntp87
Rp88
(dp89
g30
g4
sg31
g23
sg32
g33
((lp90
Vsplitting
p91
aVunitsPerJob
p92
aVoutputPrimaryDataset
p93
aVoutLFNDirBase
p94
aVtotalUnits
p95
aVoutputDatasetTag
p96
atp97
Rp98
sg40
(dp99
sg42
g33
((lp100
tp101
Rp102
sg46
Nsg47
I00
sg91
VEventBased
p103
sg92
I1
sg95
I500
sg93
Vm1000_negRL_3M_exp_singleBin_combB
p104
sg96
Vtest
p105
sg94
V/store/user/amkaur/limits/mumu_2LB
p106
sbsg24
g13
(g26
g15
Ntp107
Rp108
(dp109
g30
g4
sg31
g24
sg32
g33
((lp110
VstorageSite
p111
atp112
Rp113
sg40
(dp114
sg42
g33
((lp115
tp116
Rp117
sg46
Nsg47
I00
sg111
VT2_US_Purdue
p118
sbsg25
g13
(g26
g15
Ntp119
Rp120
(dp121
g30
g4
sg31
g25
sg32
g33
((lp122
tp123
Rp124
sg40
(dp125
sg42
g33
((lp126
tp127
Rp128
sg46
Nsg47
I00
sbsbs.